target datalayout = "e-m:e-p270:32:32-p271:32:32-p272:64:64-i64:64-i128:128-f80:128-n8:16:32:64-S128"
target triple = "x86_64-pc-linux-gnu"

%struct.mbedtls_ssl_context = type { ptr, i32, i32, i32, i32, i32, ptr, ptr, ptr, ptr, ptr, ptr, ptr, ptr, ptr, ptr, ptr, ptr, ptr, ptr, ptr, ptr, ptr, ptr, ptr, ptr, ptr, ptr, ptr, ptr, ptr, ptr, ptr, i32, i64, i64, i16, i64, i64, i64, i64, i32, i32, i8, i8, i32, i8, ptr, ptr, ptr, ptr, ptr, ptr, ptr, i32, i64, i64, [8 x i8], i16, ptr, ptr, ptr, i64, i32, i64, [12 x i8], [12 x i8], [32 x i8], i8, i8, ptr, ptr, %union.mbedtls_ssl_user_data_t }
%union.mbedtls_ssl_user_data_t = type { i64 }
%struct.mbedtls_ssl_config = type { i32, i32, i8, i8, i8, i8, i8, i8, i8, i8, i8, i8, i16, i8, i8, i8, ptr, i32, ptr, ptr, ptr, ptr, ptr, ptr, ptr, ptr, ptr, ptr, ptr, ptr, ptr, ptr, ptr, ptr, ptr, ptr, ptr, i64, ptr, ptr, ptr, ptr, ptr, ptr, ptr, ptr, %struct.mbedtls_mpi, %struct.mbedtls_mpi, ptr, i64, ptr, i64, ptr, i32, i32, i32, i32, [8 x i8], i32, i32, %union.mbedtls_ssl_user_data_t, ptr, ptr }
%struct.mbedtls_mpi = type { ptr, i16, i16 }
%struct.mbedtls_ssl_transform = type { i64, i64, i64, i64, i64, [16 x i8], [16 x i8], %struct.mbedtls_md_context_t, %struct.mbedtls_md_context_t, i32, i32, %struct.mbedtls_cipher_context_t, %struct.mbedtls_cipher_context_t, i8, i8, [32 x i8], [32 x i8], [64 x i8] }
%struct.mbedtls_md_context_t = type { ptr, ptr, ptr }
%struct.mbedtls_cipher_context_t = type { ptr, i32, i32, ptr, ptr, [16 x i8], i64, [16 x i8], i64, ptr, ptr }
%struct.mbedtls_ssl_handshake_params = type { i8, i8, i8, i8, i8, i32, i8, i8, i8, i8, ptr, ptr, ptr, ptr, ptr, i8, i8, i8, i8, i16, i16, [20 x i16], ptr, ptr, %struct.mbedtls_dhm_context, %struct.mbedtls_ecdh_context, i16, i64, i32, i8, [1024 x i8], i64, ptr, ptr, i64, i16, ptr, ptr, ptr, ptr, %struct.anon, ptr, i16, i8, i32, i32, i32, ptr, ptr, ptr, i32, ptr, [8 x i8], i8, [32 x i8], i8, i16, %struct.mbedtls_md_context_t, %struct.mbedtls_md_context_t, i16, i8, %union.anon.1, [64 x i8], [1076 x i8], i64, i32, i32, i8, ptr, ptr, %union.anon.4, %struct.mbedtls_ssl_tls13_handshake_secrets, ptr, i64, ptr }
%struct.mbedtls_dhm_context = type { %struct.mbedtls_mpi, %struct.mbedtls_mpi, %struct.mbedtls_mpi, %struct.mbedtls_mpi, %struct.mbedtls_mpi, %struct.mbedtls_mpi, %struct.mbedtls_mpi, %struct.mbedtls_mpi, %struct.mbedtls_mpi, %struct.mbedtls_mpi }
%struct.mbedtls_ecdh_context = type { i8, i32, i32, %union.anon }
%union.anon = type { %struct.mbedtls_ecdh_context_mbed }
%struct.mbedtls_ecdh_context_mbed = type { %struct.mbedtls_ecp_group, %struct.mbedtls_mpi, %struct.mbedtls_ecp_point, %struct.mbedtls_ecp_point, %struct.mbedtls_mpi }
%struct.mbedtls_ecp_group = type { i32, %struct.mbedtls_mpi, %struct.mbedtls_mpi, %struct.mbedtls_mpi, %struct.mbedtls_ecp_point, %struct.mbedtls_mpi, i64, i64, i32, ptr, ptr, ptr, ptr, ptr, i64 }
%struct.mbedtls_ecp_point = type { %struct.mbedtls_mpi, %struct.mbedtls_mpi, %struct.mbedtls_mpi }
%struct.anon = type { i64, i8, [4 x %struct.mbedtls_ssl_hs_buffer], %struct.anon.0 }
%struct.mbedtls_ssl_hs_buffer = type { i8, ptr, i64 }
%struct.anon.0 = type { ptr, i64, i32 }
%union.anon.1 = type { %struct.anon.2 }
%struct.anon.2 = type { i8, [64 x i8], i64 }
%union.anon.4 = type { [64 x i8] }
%struct.mbedtls_ssl_tls13_handshake_secrets = type { [64 x i8], [64 x i8] }

@.str = private unnamed_addr constant [121 x i8] c"generated/home/dtcxzyw/WorkSpace/Projects/compilers/llvm-opt-benchmark/bench/lief/bench_build/mbed_src/library/ssl_msg.c\00", align 1
@.str.147 = private unnamed_addr constant [17 x i8] c"skip swap epochs\00", align 1
@.str.148 = private unnamed_addr constant [12 x i8] c"swap epochs\00", align 1

; Function Attrs: nounwind uwtable
define internal i64 @ssl_transform_get_explicit_iv_len(ptr noundef %0) #0 {
  %2 = alloca ptr, align 8
  store ptr %0, ptr %2, align 8, !tbaa !50
  %3 = load ptr, ptr %2, align 8, !tbaa !50
  %4 = getelementptr inbounds nuw %struct.mbedtls_ssl_transform, ptr %3, i32 0, i32 1
  %5 = load i64, ptr %4, align 8, !tbaa !61
  %6 = load ptr, ptr %2, align 8, !tbaa !50
  %7 = getelementptr inbounds nuw %struct.mbedtls_ssl_transform, ptr %6, i32 0, i32 2
  %8 = load i64, ptr %7, align 8, !tbaa !59
  %9 = sub i64 %5, %8
  ret i64 %9
}

; Function Attrs: nounwind uwtable
define hidden void @mbedtls_ssl_update_out_pointers(ptr noundef %0, ptr noundef %1) #0 {
  %3 = alloca ptr, align 8
  %4 = alloca ptr, align 8
  store ptr %0, ptr %3, align 8, !tbaa !3
  store ptr %1, ptr %4, align 8, !tbaa !50
  %5 = load ptr, ptr %3, align 8, !tbaa !3
  %6 = getelementptr inbounds nuw %struct.mbedtls_ssl_context, ptr %5, i32 0, i32 0
  %7 = load ptr, ptr %6, align 8, !tbaa !23
  %8 = getelementptr inbounds nuw %struct.mbedtls_ssl_config, ptr %7, i32 0, i32 3
  %9 = load i8, ptr %8, align 1, !tbaa !24
  %10 = zext i8 %9 to i32
  %11 = icmp eq i32 %10, 1
  br i1 %11, label %12, label %49

12:                                               ; preds = %2
  %13 = load ptr, ptr %3, align 8, !tbaa !3
  %14 = getelementptr inbounds nuw %struct.mbedtls_ssl_context, ptr %13, i32 0, i32 49
  %15 = load ptr, ptr %14, align 8, !tbaa !103
  %16 = getelementptr inbounds i8, ptr %15, i64 3
  %17 = load ptr, ptr %3, align 8, !tbaa !3
  %18 = getelementptr inbounds nuw %struct.mbedtls_ssl_context, ptr %17, i32 0, i32 48
  store ptr %16, ptr %18, align 8, !tbaa !108
  %19 = load ptr, ptr %3, align 8, !tbaa !3
  %20 = getelementptr inbounds nuw %struct.mbedtls_ssl_context, ptr %19, i32 0, i32 48
  %21 = load ptr, ptr %20, align 8, !tbaa !108
  %22 = getelementptr inbounds i8, ptr %21, i64 8
  %23 = load ptr, ptr %3, align 8, !tbaa !3
  %24 = getelementptr inbounds nuw %struct.mbedtls_ssl_context, ptr %23, i32 0, i32 50
  store ptr %22, ptr %24, align 8, !tbaa !109
  %25 = load ptr, ptr %3, align 8, !tbaa !3
  %26 = getelementptr inbounds nuw %struct.mbedtls_ssl_context, ptr %25, i32 0, i32 50
  %27 = load ptr, ptr %26, align 8, !tbaa !109
  %28 = load ptr, ptr %3, align 8, !tbaa !3
  %29 = getelementptr inbounds nuw %struct.mbedtls_ssl_context, ptr %28, i32 0, i32 51
  store ptr %27, ptr %29, align 8, !tbaa !110
  %30 = load ptr, ptr %4, align 8, !tbaa !50
  %31 = icmp ne ptr %30, null
  br i1 %31, label %32, label %42

32:                                               ; preds = %12
  %33 = load ptr, ptr %4, align 8, !tbaa !50
  %34 = getelementptr inbounds nuw %struct.mbedtls_ssl_transform, ptr %33, i32 0, i32 14
  %35 = load i8, ptr %34, align 1, !tbaa !65
  %36 = zext i8 %35 to i32
  %37 = load ptr, ptr %3, align 8, !tbaa !3
  %38 = getelementptr inbounds nuw %struct.mbedtls_ssl_context, ptr %37, i32 0, i32 51
  %39 = load ptr, ptr %38, align 8, !tbaa !110
  %40 = sext i32 %36 to i64
  %41 = getelementptr inbounds i8, ptr %39, i64 %40
  store ptr %41, ptr %38, align 8, !tbaa !110
  br label %42

42:                                               ; preds = %32, %12
  %43 = load ptr, ptr %3, align 8, !tbaa !3
  %44 = getelementptr inbounds nuw %struct.mbedtls_ssl_context, ptr %43, i32 0, i32 51
  %45 = load ptr, ptr %44, align 8, !tbaa !110
  %46 = getelementptr inbounds i8, ptr %45, i64 2
  %47 = load ptr, ptr %3, align 8, !tbaa !3
  %48 = getelementptr inbounds nuw %struct.mbedtls_ssl_context, ptr %47, i32 0, i32 52
  store ptr %46, ptr %48, align 8, !tbaa !107
  br label %67

49:                                               ; preds = %2
  %50 = load ptr, ptr %3, align 8, !tbaa !3
  %51 = getelementptr inbounds nuw %struct.mbedtls_ssl_context, ptr %50, i32 0, i32 49
  %52 = load ptr, ptr %51, align 8, !tbaa !103
  %53 = getelementptr inbounds i8, ptr %52, i64 3
  %54 = load ptr, ptr %3, align 8, !tbaa !3
  %55 = getelementptr inbounds nuw %struct.mbedtls_ssl_context, ptr %54, i32 0, i32 51
  store ptr %53, ptr %55, align 8, !tbaa !110
  %56 = load ptr, ptr %3, align 8, !tbaa !3
  %57 = getelementptr inbounds nuw %struct.mbedtls_ssl_context, ptr %56, i32 0, i32 51
  %58 = load ptr, ptr %57, align 8, !tbaa !110
  %59 = load ptr, ptr %3, align 8, !tbaa !3
  %60 = getelementptr inbounds nuw %struct.mbedtls_ssl_context, ptr %59, i32 0, i32 50
  store ptr %58, ptr %60, align 8, !tbaa !109
  %61 = load ptr, ptr %3, align 8, !tbaa !3
  %62 = getelementptr inbounds nuw %struct.mbedtls_ssl_context, ptr %61, i32 0, i32 49
  %63 = load ptr, ptr %62, align 8, !tbaa !103
  %64 = getelementptr inbounds i8, ptr %63, i64 5
  %65 = load ptr, ptr %3, align 8, !tbaa !3
  %66 = getelementptr inbounds nuw %struct.mbedtls_ssl_context, ptr %65, i32 0, i32 52
  store ptr %64, ptr %66, align 8, !tbaa !107
  br label %67

67:                                               ; preds = %49, %42
  %68 = load ptr, ptr %3, align 8, !tbaa !3
  %69 = getelementptr inbounds nuw %struct.mbedtls_ssl_context, ptr %68, i32 0, i32 52
  %70 = load ptr, ptr %69, align 8, !tbaa !107
  %71 = load ptr, ptr %3, align 8, !tbaa !3
  %72 = getelementptr inbounds nuw %struct.mbedtls_ssl_context, ptr %71, i32 0, i32 53
  store ptr %70, ptr %72, align 8, !tbaa !111
  %73 = load ptr, ptr %4, align 8, !tbaa !50
  %74 = icmp ne ptr %73, null
  br i1 %74, label %75, label %82

75:                                               ; preds = %67
  %76 = load ptr, ptr %4, align 8, !tbaa !50
  %77 = call i64 @ssl_transform_get_explicit_iv_len(ptr noundef %76)
  %78 = load ptr, ptr %3, align 8, !tbaa !3
  %79 = getelementptr inbounds nuw %struct.mbedtls_ssl_context, ptr %78, i32 0, i32 53
  %80 = load ptr, ptr %79, align 8, !tbaa !111
  %81 = getelementptr inbounds nuw i8, ptr %80, i64 %77
  store ptr %81, ptr %79, align 8, !tbaa !111
  br label %82

82:                                               ; preds = %75, %67
  ret void
}

; Function Attrs: nounwind uwtable
define internal i32 @ssl_swap_epochs(ptr noundef %0) #0 {
  %2 = alloca i32, align 4
  %3 = alloca ptr, align 8
  %4 = alloca ptr, align 8
  %5 = alloca [8 x i8], align 1
  %6 = alloca i32, align 4
  store ptr %0, ptr %3, align 8, !tbaa !3
  call void @llvm.lifetime.start.p0(i64 8, ptr %4) #11
  call void @llvm.lifetime.start.p0(i64 8, ptr %5) #11
  %7 = load ptr, ptr %3, align 8, !tbaa !3
  %8 = getelementptr inbounds nuw %struct.mbedtls_ssl_context, ptr %7, i32 0, i32 18
  %9 = load ptr, ptr %8, align 8, !tbaa !106
  %10 = load ptr, ptr %3, align 8, !tbaa !3
  %11 = getelementptr inbounds nuw %struct.mbedtls_ssl_context, ptr %10, i32 0, i32 16
  %12 = load ptr, ptr %11, align 8, !tbaa !81
  %13 = getelementptr inbounds nuw %struct.mbedtls_ssl_handshake_params, ptr %12, i32 0, i32 51
  %14 = load ptr, ptr %13, align 8, !tbaa !126
  %15 = icmp eq ptr %9, %14
  br i1 %15, label %16, label %18

16:                                               ; preds = %1
  %17 = load ptr, ptr %3, align 8, !tbaa !3
  call void (ptr, i32, ptr, i32, ptr, ...) @mbedtls_debug_print_msg(ptr noundef %17, i32 noundef 3, ptr noundef @.str, i32 noundef 2484, ptr noundef @.str.147)
  store i32 0, ptr %2, align 4
  store i32 1, ptr %6, align 4
  br label %57

18:                                               ; preds = %1
  %19 = load ptr, ptr %3, align 8, !tbaa !3
  call void (ptr, i32, ptr, i32, ptr, ...) @mbedtls_debug_print_msg(ptr noundef %19, i32 noundef 3, ptr noundef @.str, i32 noundef 2488, ptr noundef @.str.148)
  %20 = load ptr, ptr %3, align 8, !tbaa !3
  %21 = getelementptr inbounds nuw %struct.mbedtls_ssl_context, ptr %20, i32 0, i32 18
  %22 = load ptr, ptr %21, align 8, !tbaa !106
  store ptr %22, ptr %4, align 8, !tbaa !50
  %23 = load ptr, ptr %3, align 8, !tbaa !3
  %24 = getelementptr inbounds nuw %struct.mbedtls_ssl_context, ptr %23, i32 0, i32 16
  %25 = load ptr, ptr %24, align 8, !tbaa !81
  %26 = getelementptr inbounds nuw %struct.mbedtls_ssl_handshake_params, ptr %25, i32 0, i32 51
  %27 = load ptr, ptr %26, align 8, !tbaa !126
  %28 = load ptr, ptr %3, align 8, !tbaa !3
  %29 = getelementptr inbounds nuw %struct.mbedtls_ssl_context, ptr %28, i32 0, i32 18
  store ptr %27, ptr %29, align 8, !tbaa !106
  %30 = load ptr, ptr %4, align 8, !tbaa !50
  %31 = load ptr, ptr %3, align 8, !tbaa !3
  %32 = getelementptr inbounds nuw %struct.mbedtls_ssl_context, ptr %31, i32 0, i32 16
  %33 = load ptr, ptr %32, align 8, !tbaa !81
  %34 = getelementptr inbounds nuw %struct.mbedtls_ssl_handshake_params, ptr %33, i32 0, i32 51
  store ptr %30, ptr %34, align 8, !tbaa !126
  %35 = getelementptr inbounds [8 x i8], ptr %5, i64 0, i64 0
  %36 = load ptr, ptr %3, align 8, !tbaa !3
  %37 = getelementptr inbounds nuw %struct.mbedtls_ssl_context, ptr %36, i32 0, i32 57
  %38 = getelementptr inbounds [8 x i8], ptr %37, i64 0, i64 0
  call void @llvm.memcpy.p0.p0.i64(ptr align 1 %35, ptr align 8 %38, i64 8, i1 false)
  %39 = load ptr, ptr %3, align 8, !tbaa !3
  %40 = getelementptr inbounds nuw %struct.mbedtls_ssl_context, ptr %39, i32 0, i32 57
  %41 = getelementptr inbounds [8 x i8], ptr %40, i64 0, i64 0
  %42 = load ptr, ptr %3, align 8, !tbaa !3
  %43 = getelementptr inbounds nuw %struct.mbedtls_ssl_context, ptr %42, i32 0, i32 16
  %44 = load ptr, ptr %43, align 8, !tbaa !81
  %45 = getelementptr inbounds nuw %struct.mbedtls_ssl_handshake_params, ptr %44, i32 0, i32 52
  %46 = getelementptr inbounds [8 x i8], ptr %45, i64 0, i64 0
  call void @llvm.memcpy.p0.p0.i64(ptr align 8 %41, ptr align 8 %46, i64 8, i1 false)
  %47 = load ptr, ptr %3, align 8, !tbaa !3
  %48 = getelementptr inbounds nuw %struct.mbedtls_ssl_context, ptr %47, i32 0, i32 16
  %49 = load ptr, ptr %48, align 8, !tbaa !81
  %50 = getelementptr inbounds nuw %struct.mbedtls_ssl_handshake_params, ptr %49, i32 0, i32 52
  %51 = getelementptr inbounds [8 x i8], ptr %50, i64 0, i64 0
  %52 = getelementptr inbounds [8 x i8], ptr %5, i64 0, i64 0
  call void @llvm.memcpy.p0.p0.i64(ptr align 8 %51, ptr align 1 %52, i64 8, i1 false)
  %53 = load ptr, ptr %3, align 8, !tbaa !3
  %54 = load ptr, ptr %3, align 8, !tbaa !3
  %55 = getelementptr inbounds nuw %struct.mbedtls_ssl_context, ptr %54, i32 0, i32 18
  %56 = load ptr, ptr %55, align 8, !tbaa !106
  call void @mbedtls_ssl_update_out_pointers(ptr noundef %53, ptr noundef %56)
  store i32 0, ptr %2, align 4
  store i32 1, ptr %6, align 4
  br label %57

57:                                               ; preds = %18, %16
  call void @llvm.lifetime.end.p0(i64 8, ptr %5) #11
  call void @llvm.lifetime.end.p0(i64 8, ptr %4) #11
  %58 = load i32, ptr %2, align 4
  ret i32 %58
}