; Function Attrs: nounwind uwtable
define internal fastcc void @ssl_swap_epochs(ptr noundef %0) unnamed_addr #0 {
  %2 = getelementptr inbounds nuw i8, ptr %0, i64 128
  %3 = load ptr, ptr %2, align 8, !tbaa !101
  %4 = getelementptr inbounds nuw i8, ptr %0, i64 112
  %5 = load ptr, ptr %4, align 8, !tbaa !75
  %6 = getelementptr inbounds nuw i8, ptr %5, i64 1928
  %7 = load ptr, ptr %6, align 8, !tbaa !119
  %8 = icmp eq ptr %3, %7
  br i1 %8, label %9, label %10

9:                                                ; preds = %1
  tail call void (ptr, i32, ptr, i32, ptr, ...) @mbedtls_debug_print_msg(ptr noundef nonnull %0, i32 noundef 3, ptr noundef nonnull @.str, i32 noundef 2484, ptr noundef nonnull @.str.147) #19
  br label %mbedtls_ssl_update_out_pointers.exit

10:                                               ; preds = %1
  tail call void (ptr, i32, ptr, i32, ptr, ...) @mbedtls_debug_print_msg(ptr noundef nonnull %0, i32 noundef 3, ptr noundef nonnull @.str, i32 noundef 2488, ptr noundef nonnull @.str.148) #19
  %11 = load ptr, ptr %2, align 8, !tbaa !101
  %12 = load ptr, ptr %4, align 8, !tbaa !75
  %13 = getelementptr inbounds nuw i8, ptr %12, i64 1928
  %14 = load ptr, ptr %13, align 8, !tbaa !119
  store ptr %14, ptr %2, align 8, !tbaa !101
  store ptr %11, ptr %13, align 8, !tbaa !119
  %15 = getelementptr inbounds nuw i8, ptr %0, i64 416
  %.sroa.0.0.copyload = load i64, ptr %15, align 8
  %16 = getelementptr inbounds nuw i8, ptr %12, i64 1936
  %17 = load i64, ptr %16, align 8
  store i64 %17, ptr %15, align 8
  store i64 %.sroa.0.0.copyload, ptr %16, align 8
  %18 = load ptr, ptr %2, align 8, !tbaa !101
  %19 = load ptr, ptr %0, align 8, !tbaa !18
  %20 = getelementptr inbounds nuw i8, ptr %19, i64 9
  %21 = load i8, ptr %20, align 1, !tbaa !19
  %22 = icmp eq i8 %21, 1
  %23 = getelementptr inbounds nuw i8, ptr %0, i64 352
  %24 = load ptr, ptr %23, align 8, !tbaa !96
  %25 = getelementptr inbounds nuw i8, ptr %24, i64 3
  br i1 %22, label %26, label %39

26:                                               ; preds = %10
  %27 = getelementptr inbounds nuw i8, ptr %0, i64 344
  store ptr %25, ptr %27, align 8, !tbaa !102
  %28 = getelementptr inbounds nuw i8, ptr %24, i64 11
  %29 = getelementptr inbounds nuw i8, ptr %0, i64 360
  store ptr %28, ptr %29, align 8, !tbaa !103
  %30 = getelementptr inbounds nuw i8, ptr %0, i64 368
  store ptr %28, ptr %30, align 8, !tbaa !104
  %.not.i = icmp eq ptr %18, null
  br i1 %.not.i, label %36, label %31

31:                                               ; preds = %26
  %32 = getelementptr inbounds nuw i8, ptr %18, i64 321
  %33 = load i8, ptr %32, align 1, !tbaa !63
  %34 = zext i8 %33 to i64
  %35 = getelementptr inbounds nuw i8, ptr %28, i64 %34
  store ptr %35, ptr %30, align 8, !tbaa !104
  br label %36

36:                                               ; preds = %31, %26
  %37 = phi ptr [ %35, %31 ], [ %28, %26 ]
  %38 = getelementptr inbounds nuw i8, ptr %37, i64 2
  br label %43

39:                                               ; preds = %10
  %40 = getelementptr inbounds nuw i8, ptr %0, i64 368
  store ptr %25, ptr %40, align 8, !tbaa !104
  %41 = getelementptr inbounds nuw i8, ptr %0, i64 360
  store ptr %25, ptr %41, align 8, !tbaa !103
  %42 = getelementptr inbounds nuw i8, ptr %24, i64 5
  br label %43

43:                                               ; preds = %39, %36
  %.sink.i = phi ptr [ %42, %39 ], [ %38, %36 ]
  %44 = getelementptr inbounds nuw i8, ptr %0, i64 376
  store ptr %.sink.i, ptr %44, align 8, !tbaa !97
  %45 = getelementptr inbounds nuw i8, ptr %0, i64 384
  store ptr %.sink.i, ptr %45, align 8, !tbaa !105
  %.not23.i = icmp eq ptr %18, null
  br i1 %.not23.i, label %mbedtls_ssl_update_out_pointers.exit, label %46

46:                                               ; preds = %43
  %47 = getelementptr i8, ptr %18, i64 8
  %.val.i = load i64, ptr %47, align 8, !tbaa !52
  %48 = getelementptr i8, ptr %18, i64 16
  %.val24.i = load i64, ptr %48, align 8, !tbaa !53
  %49 = sub i64 %.val.i, %.val24.i
  %50 = getelementptr inbounds nuw i8, ptr %.sink.i, i64 %49
  store ptr %50, ptr %45, align 8, !tbaa !105
  br label %mbedtls_ssl_update_out_pointers.exit

mbedtls_ssl_update_out_pointers.exit:             ; preds = %46, %43, %9
  ret void
}